target datalayout = "e-m:e-p270:32:32-p271:32:32-p272:64:64-i64:64-i128:128-f80:128-n8:16:32:64-S128"
target triple = "x86_64-pc-linux-gnu"

%struct.mbedtls_pk_context = type { ptr, ptr }
%struct.mbedtls_ecp_keypair = type { %struct.mbedtls_ecp_group, %struct.mbedtls_mpi, %struct.mbedtls_ecp_point }
%struct.mbedtls_ecp_group = type { i32, %struct.mbedtls_mpi, %struct.mbedtls_mpi, %struct.mbedtls_mpi, %struct.mbedtls_ecp_point, %struct.mbedtls_mpi, i64, i64, i32, ptr, ptr, ptr, ptr, ptr, i64 }
%struct.mbedtls_mpi = type { ptr, i16, i16 }
%struct.mbedtls_ecp_point = type { %struct.mbedtls_mpi, %struct.mbedtls_mpi, %struct.mbedtls_mpi }

@.str.2 = private unnamed_addr constant [33 x i8] c"-----BEGIN RSA PRIVATE KEY-----\0A\00", align 1
@.str.3 = private unnamed_addr constant [31 x i8] c"-----END RSA PRIVATE KEY-----\0A\00", align 1
@.str.4 = private unnamed_addr constant [29 x i8] c"-----BEGIN PRIVATE KEY-----\0A\00", align 1
@.str.5 = private unnamed_addr constant [27 x i8] c"-----END PRIVATE KEY-----\0A\00", align 1
@.str.6 = private unnamed_addr constant [32 x i8] c"-----BEGIN EC PRIVATE KEY-----\0A\00", align 1
@.str.7 = private unnamed_addr constant [30 x i8] c"-----END EC PRIVATE KEY-----\0A\00", align 1

; Function Attrs: inlinehint nounwind uwtable
define internal ptr @mbedtls_pk_ec_ro(ptr %0, ptr %1) #3 {
  %3 = alloca ptr, align 8
  %4 = alloca %struct.mbedtls_pk_context, align 8
  %5 = getelementptr inbounds nuw { ptr, ptr }, ptr %4, i32 0, i32 0
  store ptr %0, ptr %5, align 8
  %6 = getelementptr inbounds nuw { ptr, ptr }, ptr %4, i32 0, i32 1
  store ptr %1, ptr %6, align 8
  %7 = call i32 @mbedtls_pk_get_type(ptr noundef %4)
  switch i32 %7, label %11 [
    i32 2, label %8
    i32 3, label %8
    i32 4, label %8
  ]

8:                                                ; preds = %2, %2, %2
  %9 = getelementptr inbounds nuw %struct.mbedtls_pk_context, ptr %4, i32 0, i32 1
  %10 = load ptr, ptr %9, align 8, !tbaa !17
  store ptr %10, ptr %3, align 8
  br label %12

11:                                               ; preds = %2
  store ptr null, ptr %3, align 8
  br label %12

12:                                               ; preds = %11, %8
  %13 = load ptr, ptr %3, align 8
  ret ptr %13
}

; Function Attrs: inlinehint nounwind uwtable
define internal i32 @mbedtls_pk_get_ec_group_id(ptr noundef %0) #3 {
  %2 = alloca ptr, align 8
  %3 = alloca i32, align 4
  store ptr %0, ptr %2, align 8, !tbaa !11
  call void @llvm.lifetime.start.p0(i64 4, ptr %3) #7
  %4 = load ptr, ptr %2, align 8, !tbaa !11
  %5 = getelementptr inbounds nuw { ptr, ptr }, ptr %4, i32 0, i32 0
  %6 = load ptr, ptr %5, align 8
  %7 = getelementptr inbounds nuw { ptr, ptr }, ptr %4, i32 0, i32 1
  %8 = load ptr, ptr %7, align 8
  %9 = call ptr @mbedtls_pk_ec_ro(ptr %6, ptr %8)
  %10 = getelementptr inbounds nuw %struct.mbedtls_ecp_keypair, ptr %9, i32 0, i32 0
  %11 = getelementptr inbounds nuw %struct.mbedtls_ecp_group, ptr %10, i32 0, i32 0
  %12 = load i32, ptr %11, align 8, !tbaa !23
  store i32 %12, ptr %3, align 4, !tbaa !13
  %13 = load i32, ptr %3, align 4, !tbaa !13
  call void @llvm.lifetime.end.p0(i64 4, ptr %3) #7
  ret i32 %13
}

; Function Attrs: inlinehint nounwind uwtable
define internal i32 @mbedtls_pk_is_rfc8410(ptr noundef %0) #3 {
  %2 = alloca ptr, align 8
  %3 = alloca i32, align 4
  store ptr %0, ptr %2, align 8, !tbaa !11
  call void @llvm.lifetime.start.p0(i64 4, ptr %3) #7
  %4 = load ptr, ptr %2, align 8, !tbaa !11
  %5 = call i32 @mbedtls_pk_get_ec_group_id(ptr noundef %4)
  store i32 %5, ptr %3, align 4, !tbaa !13
  %6 = load i32, ptr %3, align 4, !tbaa !13
  %7 = icmp eq i32 %6, 9
  br i1 %7, label %11, label %8

8:                                                ; preds = %1
  %9 = load i32, ptr %3, align 4, !tbaa !13
  %10 = icmp eq i32 %9, 13
  br label %11

11:                                               ; preds = %8, %1
  %12 = phi i1 [ true, %1 ], [ %10, %8 ]
  %13 = zext i1 %12 to i32
  call void @llvm.lifetime.end.p0(i64 4, ptr %3) #7
  ret i32 %13
}

; Function Attrs: nounwind uwtable
define internal i32 @pk_get_type_ext(ptr noundef %0) #0 {
  %2 = alloca ptr, align 8
  %3 = alloca i32, align 4
  store ptr %0, ptr %2, align 8, !tbaa !11
  call void @llvm.lifetime.start.p0(i64 4, ptr %3) #7
  %4 = load ptr, ptr %2, align 8, !tbaa !11
  %5 = call i32 @mbedtls_pk_get_type(ptr noundef %4)
  store i32 %5, ptr %3, align 4, !tbaa !13
  %6 = load i32, ptr %3, align 4, !tbaa !13
  call void @llvm.lifetime.end.p0(i64 4, ptr %3) #7
  ret i32 %6
}

; Function Attrs: nounwind uwtable
define hidden i32 @mbedtls_pk_write_key_pem(ptr noundef %0, ptr noundef %1, i64 noundef %2) #0 {
  %4 = alloca i32, align 4
  %5 = alloca ptr, align 8
  %6 = alloca ptr, align 8
  %7 = alloca i64, align 8
  %8 = alloca i32, align 4
  %9 = alloca ptr, align 8
  %10 = alloca i32, align 4
  %11 = alloca ptr, align 8
  %12 = alloca ptr, align 8
  %13 = alloca i64, align 8
  store ptr %0, ptr %5, align 8, !tbaa !11
  store ptr %1, ptr %6, align 8, !tbaa !9
  store i64 %2, ptr %7, align 8, !tbaa !15
  call void @llvm.lifetime.start.p0(i64 4, ptr %8) #7
  store i32 -110, ptr %8, align 4, !tbaa !13
  call void @llvm.lifetime.start.p0(i64 8, ptr %9) #7
  store ptr null, ptr %9, align 8, !tbaa !9
  %14 = call noalias ptr @calloc(i64 noundef 1, i64 noundef 5679) #8
  store ptr %14, ptr %9, align 8, !tbaa !9
  %15 = load ptr, ptr %9, align 8, !tbaa !9
  %16 = icmp eq ptr %15, null
  br i1 %16, label %17, label %18

17:                                               ; preds = %3
  store i32 -16256, ptr %4, align 4
  store i32 1, ptr %10, align 4
  br label %62

18:                                               ; preds = %3
  call void @llvm.lifetime.start.p0(i64 8, ptr %11) #7
  call void @llvm.lifetime.start.p0(i64 8, ptr %12) #7
  call void @llvm.lifetime.start.p0(i64 8, ptr %13) #7
  store i64 0, ptr %13, align 8, !tbaa !15
  %19 = load ptr, ptr %5, align 8, !tbaa !11
  %20 = load ptr, ptr %9, align 8, !tbaa !9
  %21 = call i32 @mbedtls_pk_write_key_der(ptr noundef %19, ptr noundef %20, i64 noundef 5679)
  store i32 %21, ptr %8, align 4, !tbaa !13
  %22 = icmp slt i32 %21, 0
  br i1 %22, label %23, label %24

23:                                               ; preds = %18
  br label %59

24:                                               ; preds = %18
  %25 = load ptr, ptr %5, align 8, !tbaa !11
  %26 = call i32 @pk_get_type_ext(ptr noundef %25)
  %27 = icmp eq i32 %26, 1
  br i1 %27, label %28, label %29

28:                                               ; preds = %24
  store ptr @.str.2, ptr %11, align 8, !tbaa !9
  store ptr @.str.3, ptr %12, align 8, !tbaa !9
  br label %42

29:                                               ; preds = %24
  %30 = load ptr, ptr %5, align 8, !tbaa !11
  %31 = call i32 @pk_get_type_ext(ptr noundef %30)
  %32 = icmp eq i32 %31, 2
  br i1 %32, label %33, label %40

33:                                               ; preds = %29
  %34 = load ptr, ptr %5, align 8, !tbaa !11
  %35 = call i32 @mbedtls_pk_is_rfc8410(ptr noundef %34)
  %36 = icmp ne i32 %35, 0
  br i1 %36, label %37, label %38

37:                                               ; preds = %33
  store ptr @.str.4, ptr %11, align 8, !tbaa !9
  store ptr @.str.5, ptr %12, align 8, !tbaa !9
  br label %39

38:                                               ; preds = %33
  store ptr @.str.6, ptr %11, align 8, !tbaa !9
  store ptr @.str.7, ptr %12, align 8, !tbaa !9
  br label %39

39:                                               ; preds = %38, %37
  br label %41

40:                                               ; preds = %29
  store i32 -14720, ptr %8, align 4, !tbaa !13
  br label %59

41:                                               ; preds = %39
  br label %42

42:                                               ; preds = %41, %28
  %43 = load ptr, ptr %11, align 8, !tbaa !9
  %44 = load ptr, ptr %12, align 8, !tbaa !9
  %45 = load ptr, ptr %9, align 8, !tbaa !9
  %46 = getelementptr inbounds i8, ptr %45, i64 5679
  %47 = load i32, ptr %8, align 4, !tbaa !13
  %48 = sext i32 %47 to i64
  %49 = sub i64 0, %48
  %50 = getelementptr inbounds i8, ptr %46, i64 %49
  %51 = load i32, ptr %8, align 4, !tbaa !13
  %52 = sext i32 %51 to i64
  %53 = load ptr, ptr %6, align 8, !tbaa !9
  %54 = load i64, ptr %7, align 8, !tbaa !15
  %55 = call i32 @mbedtls_pem_write_buffer(ptr noundef %43, ptr noundef %44, ptr noundef %50, i64 noundef %52, ptr noundef %53, i64 noundef %54, ptr noundef %13)
  store i32 %55, ptr %8, align 4, !tbaa !13
  %56 = icmp ne i32 %55, 0
  br i1 %56, label %57, label %58

57:                                               ; preds = %42
  br label %59

58:                                               ; preds = %42
  store i32 0, ptr %8, align 4, !tbaa !13
  br label %59

59:                                               ; preds = %58, %57, %40, %23
  %60 = load ptr, ptr %9, align 8, !tbaa !9
  call void @mbedtls_zeroize_and_free(ptr noundef %60, i64 noundef 5679)
  %61 = load i32, ptr %8, align 4, !tbaa !13
  store i32 %61, ptr %4, align 4
  store i32 1, ptr %10, align 4
  call void @llvm.lifetime.end.p0(i64 8, ptr %13) #7
  call void @llvm.lifetime.end.p0(i64 8, ptr %12) #7
  call void @llvm.lifetime.end.p0(i64 8, ptr %11) #7
  br label %62

62:                                               ; preds = %59, %17
  call void @llvm.lifetime.end.p0(i64 8, ptr %9) #7
  call void @llvm.lifetime.end.p0(i64 4, ptr %8) #7
  %63 = load i32, ptr %4, align 4
  ret i32 %63
}