; Function Attrs: nounwind uwtable
define hidden i32 @mbedtls_pk_write_key_pem(ptr noundef %0, ptr noundef %1, i64 noundef %2) local_unnamed_addr #0 {
  %4 = alloca %struct.mbedtls_pk_context, align 8
  %5 = alloca i64, align 8
  %6 = tail call noalias dereferenceable_or_null(5679) ptr @calloc(i64 noundef 1, i64 noundef 5679) #7
  %7 = icmp eq ptr %6, null
  br i1 %7, label %31, label %8

8:                                                ; preds = %3
  call void @llvm.lifetime.start.p0(i64 8, ptr nonnull %5) #6
  store i64 0, ptr %5, align 8, !tbaa !3
  %9 = tail call i32 @mbedtls_pk_write_key_der(ptr noundef %0, ptr noundef nonnull %6, i64 noundef 5679)
  %10 = icmp slt i32 %9, 0
  br i1 %10, label %30, label %11

11:                                               ; preds = %8
  %12 = tail call i32 @mbedtls_pk_get_type(ptr noundef %0) #6
  %13 = icmp eq i32 %12, 1
  br i1 %13, label %24, label %14

14:                                               ; preds = %11
  %15 = tail call i32 @mbedtls_pk_get_type(ptr noundef %0) #6
  %16 = icmp eq i32 %15, 2
  br i1 %16, label %17, label %30

17:                                               ; preds = %14
  %.val = load ptr, ptr %0, align 8
  %18 = getelementptr i8, ptr %0, i64 8
  %.val20 = load ptr, ptr %18, align 8
  call void @llvm.lifetime.start.p0(i64 16, ptr nonnull %4)
  store ptr %.val, ptr %4, align 8
  %19 = getelementptr inbounds nuw i8, ptr %4, i64 8
  store ptr %.val20, ptr %19, align 8
  %20 = call i32 @mbedtls_pk_get_type(ptr noundef nonnull %4) #6
  %21 = load ptr, ptr %19, align 8
  call void @llvm.lifetime.end.p0(i64 16, ptr nonnull %4)
  %22 = load i32, ptr %21, align 8, !tbaa !11
  %23 = and i32 %22, -5
  %.not = icmp eq i32 %23, 9
  %.str.6..str.4 = select i1 %.not, ptr @.str.4, ptr @.str.6
  %.str.7..str.5 = select i1 %.not, ptr @.str.5, ptr @.str.7
  br label %24

24:                                               ; preds = %17, %11
  %.015 = phi ptr [ @.str.2, %11 ], [ %.str.6..str.4, %17 ]
  %.0 = phi ptr [ @.str.3, %11 ], [ %.str.7..str.5, %17 ]
  %25 = getelementptr inbounds nuw i8, ptr %6, i64 5679
  %26 = zext nneg i32 %9 to i64
  %27 = sub nsw i64 0, %26
  %28 = getelementptr inbounds i8, ptr %25, i64 %27
  %29 = call i32 @mbedtls_pem_write_buffer(ptr noundef nonnull %.015, ptr noundef nonnull %.0, ptr noundef nonnull %28, i64 noundef %26, ptr noundef %1, i64 noundef %2, ptr noundef nonnull %5) #6
  br label %30

30:                                               ; preds = %14, %24, %8
  %.016 = phi i32 [ %9, %8 ], [ %29, %24 ], [ -14720, %14 ]
  call void @mbedtls_zeroize_and_free(ptr noundef nonnull %6, i64 noundef 5679) #6
  call void @llvm.lifetime.end.p0(i64 8, ptr nonnull %5) #6
  br label %31

31:                                               ; preds = %3, %30
  %.017 = phi i32 [ %.016, %30 ], [ -16256, %3 ]
  ret i32 %.017
}